; ModuleID = '2/782.c'
source_filename = "2/782.c"
target datalayout = "e-m:e-p270:32:32-p271:32:32-p272:64:64-i64:64-f80:128-n8:16:32:64-S128"
target triple = "x86_64-pc-linux-gnu"

@.str = private unnamed_addr constant [3 x i8] c"%d\00", align 1
@.str.1 = private unnamed_addr constant [5 x i8] c"%d%s\00", align 1
@.str.2 = private unnamed_addr constant [7 x i8] c"%c\0A%d\0A\00", align 1
@.str.3 = private unnamed_addr constant [4 x i8] c"%d\0A\00", align 1

; Function Attrs: noinline nounwind uwtable
define dso_local void @main() #0 {
  %1 = alloca i32, align 4
  %2 = alloca i32, align 4
  %3 = alloca i32, align 4
  %4 = alloca [26 x [999 x i32]], align 16
  %5 = alloca [26 x i32], align 16
  %6 = alloca i32, align 4
  %7 = alloca i32, align 4
  %8 = alloca [27 x i8], align 16
  %9 = bitcast [26 x i32]* %5 to i8*
  call void @llvm.memset.p0i8.i64(i8* align 16 %9, i8 0, i64 104, i1 false)
  %10 = call i32 (i8*, ...) @__isoc99_scanf(i8* getelementptr inbounds ([3 x i8], [3 x i8]* @.str, i64 0, i64 0), i32* %3)
  store i32 0, i32* %1, align 4
  br label %11

11:                                               ; preds = %59, %0
  %12 = load i32, i32* %1, align 4
  %13 = load i32, i32* %3, align 4
  %14 = icmp slt i32 %12, %13
  br i1 %14, label %15, label %62

15:                                               ; preds = %11
  %16 = getelementptr inbounds [27 x i8], [27 x i8]* %8, i64 0, i64 0
  %17 = call i32 (i8*, ...) @__isoc99_scanf(i8* getelementptr inbounds ([5 x i8], [5 x i8]* @.str.1, i64 0, i64 0), i32* %6, i8* %16)
  store i32 0, i32* %2, align 4
  br label %18

18:                                               ; preds = %55, %15
  %19 = load i32, i32* %2, align 4
  %20 = sext i32 %19 to i64
  %21 = getelementptr inbounds [27 x i8], [27 x i8]* %8, i64 0, i64 0
  %22 = call i64 @strlen(i8* %21) #4
  %23 = icmp ult i64 %20, %22
  br i1 %23, label %24, label %58

24:                                               ; preds = %18
  %25 = load i32, i32* %6, align 4
  %26 = load i32, i32* %2, align 4
  %27 = sext i32 %26 to i64
  %28 = getelementptr inbounds [27 x i8], [27 x i8]* %8, i64 0, i64 %27
  %29 = load i8, i8* %28, align 1
  %30 = sext i8 %29 to i32
  %31 = sub nsw i32 %30, 65
  %32 = sext i32 %31 to i64
  %33 = getelementptr inbounds [26 x [999 x i32]], [26 x [999 x i32]]* %4, i64 0, i64 %32
  %34 = load i32, i32* %2, align 4
  %35 = sext i32 %34 to i64
  %36 = getelementptr inbounds [27 x i8], [27 x i8]* %8, i64 0, i64 %35
  %37 = load i8, i8* %36, align 1
  %38 = sext i8 %37 to i32
  %39 = sub nsw i32 %38, 65
  %40 = sext i32 %39 to i64
  %41 = getelementptr inbounds [26 x i32], [26 x i32]* %5, i64 0, i64 %40
  %42 = load i32, i32* %41, align 4
  %43 = sext i32 %42 to i64
  %44 = getelementptr inbounds [999 x i32], [999 x i32]* %33, i64 0, i64 %43
  store i32 %25, i32* %44, align 4
  %45 = load i32, i32* %2, align 4
  %46 = sext i32 %45 to i64
  %47 = getelementptr inbounds [27 x i8], [27 x i8]* %8, i64 0, i64 %46
  %48 = load i8, i8* %47, align 1
  %49 = sext i8 %48 to i32
  %50 = sub nsw i32 %49, 65
  %51 = sext i32 %50 to i64
  %52 = getelementptr inbounds [26 x i32], [26 x i32]* %5, i64 0, i64 %51
  %53 = load i32, i32* %52, align 4
  %54 = add nsw i32 %53, 1
  store i32 %54, i32* %52, align 4
  br label %55

55:                                               ; preds = %24
  %56 = load i32, i32* %2, align 4
  %57 = add nsw i32 %56, 1
  store i32 %57, i32* %2, align 4
  br label %18

58:                                               ; preds = %18
  br label %59

59:                                               ; preds = %58
  %60 = load i32, i32* %1, align 4
  %61 = add nsw i32 %60, 1
  store i32 %61, i32* %1, align 4
  br label %11

62:                                               ; preds = %11
  store i32 0, i32* %7, align 4
  store i32 0, i32* %1, align 4
  br label %63

63:                                               ; preds = %79, %62
  %64 = load i32, i32* %1, align 4
  %65 = icmp slt i32 %64, 26
  br i1 %65, label %66, label %82

66:                                               ; preds = %63
  %67 = load i32, i32* %1, align 4
  %68 = sext i32 %67 to i64
  %69 = getelementptr inbounds [26 x i32], [26 x i32]* %5, i64 0, i64 %68
  %70 = load i32, i32* %69, align 4
  %71 = load i32, i32* %7, align 4
  %72 = sext i32 %71 to i64
  %73 = getelementptr inbounds [26 x i32], [26 x i32]* %5, i64 0, i64 %72
  %74 = load i32, i32* %73, align 4
  %75 = icmp sgt i32 %70, %74
  br i1 %75, label %76, label %78

76:                                               ; preds = %66
  %77 = load i32, i32* %1, align 4
  store i32 %77, i32* %7, align 4
  br label %78

78:                                               ; preds = %76, %66
  br label %79

79:                                               ; preds = %78
  %80 = load i32, i32* %1, align 4
  %81 = add nsw i32 %80, 1
  store i32 %81, i32* %1, align 4
  br label %63

82:                                               ; preds = %63
  %83 = load i32, i32* %7, align 4
  %84 = add nsw i32 %83, 65
  %85 = load i32, i32* %7, align 4
  %86 = sext i32 %85 to i64
  %87 = getelementptr inbounds [26 x i32], [26 x i32]* %5, i64 0, i64 %86
  %88 = load i32, i32* %87, align 4
  %89 = call i32 (i8*, ...) @printf(i8* getelementptr inbounds ([7 x i8], [7 x i8]* @.str.2, i64 0, i64 0), i32 %84, i32 %88)
  store i32 0, i32* %1, align 4
  br label %90

90:                                               ; preds = %106, %82
  %91 = load i32, i32* %1, align 4
  %92 = load i32, i32* %7, align 4
  %93 = sext i32 %92 to i64
  %94 = getelementptr inbounds [26 x i32], [26 x i32]* %5, i64 0, i64 %93
  %95 = load i32, i32* %94, align 4
  %96 = icmp slt i32 %91, %95
  br i1 %96, label %97, label %109

97:                                               ; preds = %90
  %98 = load i32, i32* %7, align 4
  %99 = sext i32 %98 to i64
  %100 = getelementptr inbounds [26 x [999 x i32]], [26 x [999 x i32]]* %4, i64 0, i64 %99
  %101 = load i32, i32* %1, align 4
  %102 = sext i32 %101 to i64
  %103 = getelementptr inbounds [999 x i32], [999 x i32]* %100, i64 0, i64 %102
  %104 = load i32, i32* %103, align 4
  %105 = call i32 (i8*, ...) @printf(i8* getelementptr inbounds ([4 x i8], [4 x i8]* @.str.3, i64 0, i64 0), i32 %104)
  br label %106

106:                                              ; preds = %97
  %107 = load i32, i32* %1, align 4
  %108 = add nsw i32 %107, 1
  store i32 %108, i32* %1, align 4
  br label %90

109:                                              ; preds = %90
  ret void
}

; Function Attrs: argmemonly nounwind willreturn
declare void @llvm.memset.p0i8.i64(i8* nocapture writeonly, i8, i64, i1 immarg) #1

declare dso_local i32 @__isoc99_scanf(i8*, ...) #2

; Function Attrs: nounwind readonly
declare dso_local i64 @strlen(i8*) #3

declare dso_local i32 @printf(i8*, ...) #2


!llvm.module.flags = !{!0}
!llvm.ident = !{!1}

!0 = !{i32 1, !"wchar_size", i32 4}
!1 = !{!"clang version 10.0.0-4ubuntu1 "}
